target datalayout = "e-m:e-p270:32:32-p271:32:32-p272:64:64-i64:64-i128:128-f80:128-n8:16:32:64-S128"
target triple = "x86_64-pc-linux-gnu"

%struct.WildcardData = type { ptr, ptr, %struct.Curl_llist, ptr, ptr, i8 }
%struct.Curl_llist = type { ptr, ptr, ptr, i64 }
%struct.ftp_parselist_data = type { i32, %union.anon, i32, ptr, i32, i64, %struct.anon.1 }
%union.anon = type { %struct.anon }
%struct.anon = type { i32, %union.pl_unix_substate }
%union.pl_unix_substate = type { i32 }
%struct.anon.1 = type { i64, i64, i64, i64, i64, i64 }
%struct.Curl_easy = type { i32, i64, i64, ptr, %struct.Curl_llist_node, %struct.Curl_llist_node, i32, i32, %struct.Curl_message, %struct.easy_pollset, %struct.Names, ptr, ptr, ptr, %struct.SingleRequest, %struct.UserDefined, ptr, ptr, %struct.Progress, %struct.UrlState, ptr, %struct.PureInfo, %struct.curl_tlssessioninfo }
%struct.Curl_llist_node = type { ptr, ptr, ptr, ptr }
%struct.Curl_message = type { %struct.Curl_llist_node, %struct.CURLMsg }
%struct.CURLMsg = type { i32, ptr, %union.anon.2 }
%union.anon.2 = type { ptr }
%struct.easy_pollset = type { [5 x i32], i32, [5 x i8] }
%struct.Names = type { ptr, i32 }
%struct.SingleRequest = type <{ i64, i64, i64, i64, %struct.curltime, i32, i32, i32, i32, i64, i32, i32, i32, i32, ptr, ptr, %struct.bufq, i64, i64, ptr, ptr, %union.anon.3, ptr, i8, i32, [3 x i8] }>
%struct.curltime = type { i64, i32 }
%struct.bufq = type { ptr, ptr, ptr, ptr, i64, i64, i64, i32 }
%union.anon.3 = type { ptr }
%struct.UserDefined = type <{ ptr, ptr, ptr, ptr, ptr, ptr, i16, [6 x i8], i64, i64, i64, ptr, ptr, i64, i16, i16, [4 x i8], ptr, ptr, ptr, ptr, ptr, ptr, ptr, ptr, ptr, ptr, ptr, ptr, ptr, ptr, ptr, ptr, ptr, ptr, ptr, ptr, ptr, ptr, ptr, i32, i32, i32, i32, i32, [4 x i8], i64, i64, i64, i64, i64, i64, i64, i64, ptr, ptr, %struct.curl_mimepart, ptr, ptr, i64, i8, i8, i8, [5 x i8], %struct.ssl_config_data, %struct.ssl_config_data, ptr, i16, i8, i8, [4 x i8], %struct.ssl_general_config, i32, i32, i32, [4 x i8], ptr, ptr, i8, [7 x i8], i64, i8, i8, i8, i8, i32, ptr, ptr, ptr, i8, i8, [2 x i8], i32, [63 x ptr], [8 x ptr], i32, i32, i32, [4 x i8], ptr, ptr, ptr, ptr, ptr, i8, [3 x i8], i32, i32, i32, i64, %struct.Curl_data_priority, ptr, ptr, i64, ptr, i64, ptr, ptr, ptr, i8, [3 x i8], i32, i8, i8, i64, [6 x i8] }>
%struct.curl_mimepart = type { ptr, ptr, i32, i32, ptr, ptr, ptr, ptr, ptr, ptr, ptr, ptr, ptr, ptr, ptr, i64, %struct.mime_state, ptr, %struct.mime_encoder_state, i64 }
%struct.mime_state = type { i32, ptr, i64 }
%struct.mime_encoder_state = type { i64, i64, i64, [256 x i8] }
%struct.ssl_config_data = type { %struct.ssl_primary_config, i64, ptr, ptr, ptr, ptr, ptr, ptr, ptr, i16 }
%struct.ssl_primary_config = type { ptr, ptr, ptr, ptr, ptr, ptr, ptr, ptr, ptr, ptr, ptr, ptr, i8, i32, i8, i8 }
%struct.ssl_general_config = type { i64, i32 }
%struct.Curl_data_priority = type { ptr, ptr, i32, i8 }
%struct.Progress = type { i64, %struct.pgrs_dir, %struct.pgrs_dir, i64, i64, i32, i32, i64, i64, i64, i64, i64, i64, i64, i64, i64, %struct.curltime, %struct.curltime, %struct.curltime, %struct.curltime, [6 x i64], [6 x %struct.curltime], i32, i8 }
%struct.pgrs_dir = type { i64, i64, i64, %struct.pgrs_measure }
%struct.pgrs_measure = type { %struct.curltime, i64 }
%struct.UrlState = type { %struct.curltime, i64, i64, %struct.dynbuf, ptr, i64, ptr, i32, i32, i32, ptr, i64, i32, i64, i32, ptr, %struct.digestdata, %struct.digestdata, %struct.auth, %struct.auth, %struct.Curl_async, ptr, %struct.curltime, %struct.Curl_tree, %struct.Curl_llist, [15 x %struct.time_node], ptr, ptr, i64, i64, %struct.Curl_data_priority, ptr, ptr, ptr, %struct.urlpieces, ptr, ptr, ptr, ptr, ptr, i64, %struct.dynbuf, %struct.Curl_llist, [2 x %struct.curl_header], ptr, i32, ptr, ptr, %struct.store_netrc, %struct.dynamically_allocated_data, i8, i8, i8, i8, i32 }
%struct.digestdata = type { ptr, ptr, ptr, ptr, ptr, ptr, i32, i8, i8 }
%struct.auth = type { i64, i64, i64, i8 }
%struct.Curl_async = type { ptr, ptr, ptr, ptr, i32, i32, i8 }
%struct.Curl_tree = type { ptr, ptr, ptr, ptr, %struct.curltime, ptr }
%struct.time_node = type { %struct.Curl_llist_node, %struct.curltime, i32 }
%struct.urlpieces = type { ptr, ptr, ptr, ptr, ptr, ptr, ptr, ptr }
%struct.dynbuf = type { ptr, i64, i64, i64 }
%struct.curl_header = type { ptr, ptr, i64, i64, i32, ptr }
%struct.store_netrc = type { %struct.dynbuf, ptr, i8 }
%struct.dynamically_allocated_data = type { ptr, ptr, ptr, ptr, ptr, ptr, ptr, ptr, ptr, ptr, ptr, ptr, ptr }
%struct.PureInfo = type { i32, i32, i32, i64, i64, i64, i64, i64, ptr, ptr, i64, i32, %struct.ip_quadruple, i32, ptr, i32, %struct.curl_certinfo, i32, i8 }
%struct.ip_quadruple = type { [46 x i8], [46 x i8], i32, i32 }
%struct.curl_certinfo = type { i32, ptr }
%struct.curl_tlssessioninfo = type { i32, ptr }
%struct.ftp_wc = type { ptr, %struct.anon.4 }
%struct.anon.4 = type { ptr, ptr }
%struct.fileinfo = type { %struct.curl_fileinfo, %struct.Curl_llist_node, %struct.dynbuf }
%struct.curl_fileinfo = type { ptr, i32, i64, i32, i32, i32, i64, i64, %struct.anon.5, i32, ptr, i64, i64 }
%struct.anon.5 = type { ptr, ptr, ptr, ptr, ptr }

@.str.5 = private unnamed_addr constant [5 x i8] c" -> \00", align 1

; Function Attrs: nounwind uwtable
define internal i32 @ftp_pl_insert_finfo(ptr noundef %0, ptr noundef %1) #0 {
  %3 = alloca ptr, align 8
  %4 = alloca ptr, align 8
  %5 = alloca ptr, align 8
  %6 = alloca ptr, align 8
  %7 = alloca ptr, align 8
  %8 = alloca ptr, align 8
  %9 = alloca ptr, align 8
  %10 = alloca i8, align 1
  %11 = alloca ptr, align 8
  %12 = alloca ptr, align 8
  store ptr %0, ptr %3, align 8, !tbaa !35
  store ptr %1, ptr %4, align 8, !tbaa !108
  call void @llvm.lifetime.start.p0(i64 8, ptr %5) #5
  call void @llvm.lifetime.start.p0(i64 8, ptr %6) #5
  %13 = load ptr, ptr %3, align 8, !tbaa !35
  %14 = getelementptr inbounds nuw %struct.Curl_easy, ptr %13, i32 0, i32 20
  %15 = load ptr, ptr %14, align 8, !tbaa !37
  store ptr %15, ptr %6, align 8, !tbaa !4
  call void @llvm.lifetime.start.p0(i64 8, ptr %7) #5
  %16 = load ptr, ptr %6, align 8, !tbaa !4
  %17 = getelementptr inbounds nuw %struct.WildcardData, ptr %16, i32 0, i32 3
  %18 = load ptr, ptr %17, align 8, !tbaa !20
  store ptr %18, ptr %7, align 8, !tbaa !100
  call void @llvm.lifetime.start.p0(i64 8, ptr %8) #5
  %19 = load ptr, ptr %6, align 8, !tbaa !4
  %20 = getelementptr inbounds nuw %struct.WildcardData, ptr %19, i32 0, i32 2
  store ptr %20, ptr %8, align 8, !tbaa !132
  call void @llvm.lifetime.start.p0(i64 8, ptr %9) #5
  %21 = load ptr, ptr %7, align 8, !tbaa !100
  %22 = getelementptr inbounds nuw %struct.ftp_wc, ptr %21, i32 0, i32 0
  %23 = load ptr, ptr %22, align 8, !tbaa !101
  store ptr %23, ptr %9, align 8, !tbaa !25
  call void @llvm.lifetime.start.p0(i64 1, ptr %10) #5
  store i8 1, ptr %10, align 1, !tbaa !133
  call void @llvm.lifetime.start.p0(i64 8, ptr %11) #5
  %24 = load ptr, ptr %4, align 8, !tbaa !108
  %25 = getelementptr inbounds nuw %struct.fileinfo, ptr %24, i32 0, i32 0
  store ptr %25, ptr %11, align 8, !tbaa !109
  call void @llvm.lifetime.start.p0(i64 8, ptr %12) #5
  %26 = load ptr, ptr %4, align 8, !tbaa !108
  %27 = getelementptr inbounds nuw %struct.fileinfo, ptr %26, i32 0, i32 2
  %28 = call ptr @Curl_dyn_ptr(ptr noundef %27)
  store ptr %28, ptr %12, align 8, !tbaa !33
  %29 = load ptr, ptr %12, align 8, !tbaa !33
  %30 = load ptr, ptr %9, align 8, !tbaa !25
  %31 = getelementptr inbounds nuw %struct.ftp_parselist_data, ptr %30, i32 0, i32 6
  %32 = getelementptr inbounds nuw %struct.anon.1, ptr %31, i32 0, i32 0
  %33 = load i64, ptr %32, align 8, !tbaa !128
  %34 = getelementptr inbounds nuw i8, ptr %29, i64 %33
  %35 = load ptr, ptr %11, align 8, !tbaa !109
  %36 = getelementptr inbounds nuw %struct.curl_fileinfo, ptr %35, i32 0, i32 0
  store ptr %34, ptr %36, align 8, !tbaa !135
  %37 = load ptr, ptr %9, align 8, !tbaa !25
  %38 = getelementptr inbounds nuw %struct.ftp_parselist_data, ptr %37, i32 0, i32 6
  %39 = getelementptr inbounds nuw %struct.anon.1, ptr %38, i32 0, i32 2
  %40 = load i64, ptr %39, align 8, !tbaa !125
  %41 = icmp ne i64 %40, 0
  br i1 %41, label %42, label %49

42:                                               ; preds = %2
  %43 = load ptr, ptr %12, align 8, !tbaa !33
  %44 = load ptr, ptr %9, align 8, !tbaa !25
  %45 = getelementptr inbounds nuw %struct.ftp_parselist_data, ptr %44, i32 0, i32 6
  %46 = getelementptr inbounds nuw %struct.anon.1, ptr %45, i32 0, i32 2
  %47 = load i64, ptr %46, align 8, !tbaa !125
  %48 = getelementptr inbounds nuw i8, ptr %43, i64 %47
  br label %50

49:                                               ; preds = %2
  br label %50

50:                                               ; preds = %49, %42
  %51 = phi ptr [ %48, %42 ], [ null, %49 ]
  %52 = load ptr, ptr %11, align 8, !tbaa !109
  %53 = getelementptr inbounds nuw %struct.curl_fileinfo, ptr %52, i32 0, i32 8
  %54 = getelementptr inbounds nuw %struct.anon.5, ptr %53, i32 0, i32 3
  store ptr %51, ptr %54, align 8, !tbaa !136
  %55 = load ptr, ptr %9, align 8, !tbaa !25
  %56 = getelementptr inbounds nuw %struct.ftp_parselist_data, ptr %55, i32 0, i32 6
  %57 = getelementptr inbounds nuw %struct.anon.1, ptr %56, i32 0, i32 4
  %58 = load i64, ptr %57, align 8, !tbaa !122
  %59 = icmp ne i64 %58, 0
  br i1 %59, label %60, label %67

60:                                               ; preds = %50
  %61 = load ptr, ptr %12, align 8, !tbaa !33
  %62 = load ptr, ptr %9, align 8, !tbaa !25
  %63 = getelementptr inbounds nuw %struct.ftp_parselist_data, ptr %62, i32 0, i32 6
  %64 = getelementptr inbounds nuw %struct.anon.1, ptr %63, i32 0, i32 4
  %65 = load i64, ptr %64, align 8, !tbaa !122
  %66 = getelementptr inbounds nuw i8, ptr %61, i64 %65
  br label %68

67:                                               ; preds = %50
  br label %68

68:                                               ; preds = %67, %60
  %69 = phi ptr [ %66, %60 ], [ null, %67 ]
  %70 = load ptr, ptr %11, align 8, !tbaa !109
  %71 = getelementptr inbounds nuw %struct.curl_fileinfo, ptr %70, i32 0, i32 8
  %72 = getelementptr inbounds nuw %struct.anon.5, ptr %71, i32 0, i32 1
  store ptr %69, ptr %72, align 8, !tbaa !137
  %73 = load ptr, ptr %9, align 8, !tbaa !25
  %74 = getelementptr inbounds nuw %struct.ftp_parselist_data, ptr %73, i32 0, i32 6
  %75 = getelementptr inbounds nuw %struct.anon.1, ptr %74, i32 0, i32 5
  %76 = load i64, ptr %75, align 8, !tbaa !129
  %77 = icmp ne i64 %76, 0
  br i1 %77, label %78, label %85

78:                                               ; preds = %68
  %79 = load ptr, ptr %12, align 8, !tbaa !33
  %80 = load ptr, ptr %9, align 8, !tbaa !25
  %81 = getelementptr inbounds nuw %struct.ftp_parselist_data, ptr %80, i32 0, i32 6
  %82 = getelementptr inbounds nuw %struct.anon.1, ptr %81, i32 0, i32 5
  %83 = load i64, ptr %82, align 8, !tbaa !129
  %84 = getelementptr inbounds nuw i8, ptr %79, i64 %83
  br label %86

85:                                               ; preds = %68
  br label %86

86:                                               ; preds = %85, %78
  %87 = phi ptr [ %84, %78 ], [ null, %85 ]
  %88 = load ptr, ptr %11, align 8, !tbaa !109
  %89 = getelementptr inbounds nuw %struct.curl_fileinfo, ptr %88, i32 0, i32 8
  %90 = getelementptr inbounds nuw %struct.anon.5, ptr %89, i32 0, i32 4
  store ptr %87, ptr %90, align 8, !tbaa !138
  %91 = load ptr, ptr %12, align 8, !tbaa !33
  %92 = load ptr, ptr %9, align 8, !tbaa !25
  %93 = getelementptr inbounds nuw %struct.ftp_parselist_data, ptr %92, i32 0, i32 6
  %94 = getelementptr inbounds nuw %struct.anon.1, ptr %93, i32 0, i32 3
  %95 = load i64, ptr %94, align 8, !tbaa !127
  %96 = getelementptr inbounds nuw i8, ptr %91, i64 %95
  %97 = load ptr, ptr %11, align 8, !tbaa !109
  %98 = getelementptr inbounds nuw %struct.curl_fileinfo, ptr %97, i32 0, i32 8
  %99 = getelementptr inbounds nuw %struct.anon.5, ptr %98, i32 0, i32 0
  store ptr %96, ptr %99, align 8, !tbaa !139
  %100 = load ptr, ptr %9, align 8, !tbaa !25
  %101 = getelementptr inbounds nuw %struct.ftp_parselist_data, ptr %100, i32 0, i32 6
  %102 = getelementptr inbounds nuw %struct.anon.1, ptr %101, i32 0, i32 1
  %103 = load i64, ptr %102, align 8, !tbaa !124
  %104 = icmp ne i64 %103, 0
  br i1 %104, label %105, label %112

105:                                              ; preds = %86
  %106 = load ptr, ptr %12, align 8, !tbaa !33
  %107 = load ptr, ptr %9, align 8, !tbaa !25
  %108 = getelementptr inbounds nuw %struct.ftp_parselist_data, ptr %107, i32 0, i32 6
  %109 = getelementptr inbounds nuw %struct.anon.1, ptr %108, i32 0, i32 1
  %110 = load i64, ptr %109, align 8, !tbaa !124
  %111 = getelementptr inbounds nuw i8, ptr %106, i64 %110
  br label %113

112:                                              ; preds = %86
  br label %113

113:                                              ; preds = %112, %105
  %114 = phi ptr [ %111, %105 ], [ null, %112 ]
  %115 = load ptr, ptr %11, align 8, !tbaa !109
  %116 = getelementptr inbounds nuw %struct.curl_fileinfo, ptr %115, i32 0, i32 8
  %117 = getelementptr inbounds nuw %struct.anon.5, ptr %116, i32 0, i32 2
  store ptr %114, ptr %117, align 8, !tbaa !140
  %118 = load ptr, ptr %3, align 8, !tbaa !35
  %119 = getelementptr inbounds nuw %struct.Curl_easy, ptr %118, i32 0, i32 15
  %120 = getelementptr inbounds nuw %struct.UserDefined, ptr %119, i32 0, i32 101
  %121 = load ptr, ptr %120, align 8, !tbaa !141
  store ptr %121, ptr %5, align 8, !tbaa !16
  %122 = load ptr, ptr %5, align 8, !tbaa !16
  %123 = icmp ne ptr %122, null
  br i1 %123, label %125, label %124

124:                                              ; preds = %113
  store ptr @Curl_fnmatch, ptr %5, align 8, !tbaa !16
  br label %125

125:                                              ; preds = %124, %113
  %126 = load ptr, ptr %3, align 8, !tbaa !35
  call void @Curl_set_in_callback(ptr noundef %126, i1 noundef zeroext true)
  %127 = load ptr, ptr %5, align 8, !tbaa !16
  %128 = load ptr, ptr %3, align 8, !tbaa !35
  %129 = getelementptr inbounds nuw %struct.Curl_easy, ptr %128, i32 0, i32 15
  %130 = getelementptr inbounds nuw %struct.UserDefined, ptr %129, i32 0, i32 102
  %131 = load ptr, ptr %130, align 8, !tbaa !142
  %132 = load ptr, ptr %6, align 8, !tbaa !4
  %133 = getelementptr inbounds nuw %struct.WildcardData, ptr %132, i32 0, i32 1
  %134 = load ptr, ptr %133, align 8, !tbaa !22
  %135 = load ptr, ptr %11, align 8, !tbaa !109
  %136 = getelementptr inbounds nuw %struct.curl_fileinfo, ptr %135, i32 0, i32 0
  %137 = load ptr, ptr %136, align 8, !tbaa !135
  %138 = call i32 %127(ptr noundef %131, ptr noundef %134, ptr noundef %137)
  %139 = icmp eq i32 %138, 0
  br i1 %139, label %140, label %160

140:                                              ; preds = %125
  %141 = load ptr, ptr %11, align 8, !tbaa !109
  %142 = getelementptr inbounds nuw %struct.curl_fileinfo, ptr %141, i32 0, i32 1
  %143 = load i32, ptr %142, align 8, !tbaa !115
  %144 = icmp eq i32 %143, 2
  br i1 %144, label %145, label %159

145:                                              ; preds = %140
  %146 = load ptr, ptr %11, align 8, !tbaa !109
  %147 = getelementptr inbounds nuw %struct.curl_fileinfo, ptr %146, i32 0, i32 8
  %148 = getelementptr inbounds nuw %struct.anon.5, ptr %147, i32 0, i32 4
  %149 = load ptr, ptr %148, align 8, !tbaa !138
  %150 = icmp ne ptr %149, null
  br i1 %150, label %151, label %159

151:                                              ; preds = %145
  %152 = load ptr, ptr %11, align 8, !tbaa !109
  %153 = getelementptr inbounds nuw %struct.curl_fileinfo, ptr %152, i32 0, i32 8
  %154 = getelementptr inbounds nuw %struct.anon.5, ptr %153, i32 0, i32 4
  %155 = load ptr, ptr %154, align 8, !tbaa !138
  %156 = call ptr @strstr(ptr noundef %155, ptr noundef @.str.5) #6
  %157 = icmp ne ptr %156, null
  br i1 %157, label %158, label %159

158:                                              ; preds = %151
  store i8 0, ptr %10, align 1, !tbaa !133
  br label %159

159:                                              ; preds = %158, %151, %145, %140
  br label %161

160:                                              ; preds = %125
  store i8 0, ptr %10, align 1, !tbaa !133
  br label %161

161:                                              ; preds = %160, %159
  %162 = load ptr, ptr %3, align 8, !tbaa !35
  call void @Curl_set_in_callback(ptr noundef %162, i1 noundef zeroext false)
  %163 = load i8, ptr %10, align 1, !tbaa !133, !range !143, !noundef !144
  %164 = trunc i8 %163 to i1
  br i1 %164, label %165, label %170

165:                                              ; preds = %161
  %166 = load ptr, ptr %8, align 8, !tbaa !132
  %167 = load ptr, ptr %11, align 8, !tbaa !109
  %168 = load ptr, ptr %4, align 8, !tbaa !108
  %169 = getelementptr inbounds nuw %struct.fileinfo, ptr %168, i32 0, i32 1
  call void @Curl_llist_append(ptr noundef %166, ptr noundef %167, ptr noundef %169)
  br label %172

170:                                              ; preds = %161
  %171 = load ptr, ptr %4, align 8, !tbaa !108
  call void @Curl_fileinfo_cleanup(ptr noundef %171)
  br label %172

172:                                              ; preds = %170, %165
  %173 = load ptr, ptr %7, align 8, !tbaa !100
  %174 = getelementptr inbounds nuw %struct.ftp_wc, ptr %173, i32 0, i32 0
  %175 = load ptr, ptr %174, align 8, !tbaa !101
  %176 = getelementptr inbounds nuw %struct.ftp_parselist_data, ptr %175, i32 0, i32 3
  store ptr null, ptr %176, align 8, !tbaa !27
  call void @llvm.lifetime.end.p0(i64 8, ptr %12) #5
  call void @llvm.lifetime.end.p0(i64 8, ptr %11) #5
  call void @llvm.lifetime.end.p0(i64 1, ptr %10) #5
  call void @llvm.lifetime.end.p0(i64 8, ptr %9) #5
  call void @llvm.lifetime.end.p0(i64 8, ptr %8) #5
  call void @llvm.lifetime.end.p0(i64 8, ptr %7) #5
  call void @llvm.lifetime.end.p0(i64 8, ptr %6) #5
  call void @llvm.lifetime.end.p0(i64 8, ptr %5) #5
  ret i32 0
}